; Function Attrs: mustprogress uwtable
define internal void @"_ZNSt17_Function_handlerIFN7rocksdb6StatusERKNS0_13ConfigOptionsERKNSt7__cxx1112basic_stringIcSt11char_traitsIcESaIcEEEPKvPSA_ENS0_3$_3EE9_M_invokeERKSt9_Any_dataS4_SC_OSE_OSF_"(ptr noalias nocapture writeonly sret(%"class.rocksdb::Status") align 8 %agg.result, ptr nocapture nonnull readnone align 8 %__functor, ptr noundef nonnull align 8 dereferenceable(80) %__args, ptr nocapture nonnull readnone align 8 %__args1, ptr nocapture noundef nonnull readonly align 8 dereferenceable(8) %__args3, ptr nocapture noundef nonnull readonly align 8 dereferenceable(8) %__args5) #2 align 2 personality ptr @__gxx_personality_v0 {
entry:
  %ref.tmp.i.i.i = alloca %"class.std::__cxx11::basic_string", align 8
  %__args3.val = load ptr, ptr %__args3, align 8
  %__args5.val = load ptr, ptr %__args5, align 8
  %__args3.val.val = load ptr, ptr %__args3.val, align 8
  tail call void @llvm.experimental.noalias.scope.decl(metadata !207)
  tail call void @llvm.experimental.noalias.scope.decl(metadata !210)
  tail call void @llvm.experimental.noalias.scope.decl(metadata !213)
  call void @llvm.lifetime.start.p0(i64 32, ptr nonnull %ref.tmp.i.i.i), !noalias !216
  %cmp.i.i.i = icmp eq ptr %__args3.val.val, null
  br i1 %cmp.i.i.i, label %if.then.i.i.i, label %if.else.i.i.i

if.then.i.i.i:                                    ; preds = %entry
  %call.i.i.i = tail call noundef nonnull align 8 dereferenceable(32) ptr @_ZNSt7__cxx1112basic_stringIcSt11char_traitsIcESaIcEEaSERKS4_(ptr noundef nonnull align 8 dereferenceable(32) %__args5.val, ptr noundef nonnull align 8 dereferenceable(32) @_ZN7rocksdb14kNullptrStringB5cxx11E), !noalias !217
  br label %"_ZSt10__invoke_rIN7rocksdb6StatusERNS0_3$_3EJRKNS0_13ConfigOptionsERKNSt7__cxx1112basic_stringIcSt11char_traitsIcESaIcEEEPKvPSC_EENSt9enable_ifIX16is_invocable_r_vIT_T0_DpT1_EESJ_E4typeEOSK_DpOSL_.exit"

if.else.i.i.i:                                    ; preds = %entry
  %mutable_options_only.i.i.i = getelementptr inbounds i8, ptr %__args, i64 4
  %0 = load i8, ptr %mutable_options_only.i.i.i, align 4, !noalias !217
  %1 = and i8 %0, 1
  %tobool.not.i.i.i = icmp eq i8 %1, 0
  br i1 %tobool.not.i.i.i, label %if.else4.i.i.i, label %if.then2.i.i.i

if.then2.i.i.i:                                   ; preds = %if.else.i.i.i
  %call3.i.i.i = tail call noundef nonnull align 8 dereferenceable(32) ptr @_ZNSt7__cxx1112basic_stringIcSt11char_traitsIcESaIcEEaSEPKc(ptr noundef nonnull align 8 dereferenceable(32) %__args5.val, ptr noundef nonnull @.str.166), !noalias !217
  br label %"_ZSt10__invoke_rIN7rocksdb6StatusERNS0_3$_3EJRKNS0_13ConfigOptionsERKNSt7__cxx1112basic_stringIcSt11char_traitsIcESaIcEEEPKvPSC_EENSt9enable_ifIX16is_invocable_r_vIT_T0_DpT1_EESJ_E4typeEOSK_DpOSL_.exit"

if.else4.i.i.i:                                   ; preds = %if.else.i.i.i
  call void @_ZNK7rocksdb12Configurable8ToStringB5cxx11ERKNS_13ConfigOptionsE(ptr nonnull sret(%"class.std::__cxx11::basic_string") align 8 %ref.tmp.i.i.i, ptr noundef nonnull align 8 dereferenceable(32) %__args3.val.val, ptr noundef nonnull align 8 dereferenceable(80) %__args), !noalias !217
  %call5.i.i.i = call noundef nonnull align 8 dereferenceable(32) ptr @_ZNSt7__cxx1112basic_stringIcSt11char_traitsIcESaIcEEaSEOS4_(ptr noundef nonnull align 8 dereferenceable(32) %__args5.val, ptr noundef nonnull align 8 dereferenceable(32) %ref.tmp.i.i.i) #27, !noalias !217
  call void @_ZNSt7__cxx1112basic_stringIcSt11char_traitsIcESaIcEED1Ev(ptr noundef nonnull align 8 dereferenceable(32) %ref.tmp.i.i.i) #27, !noalias !217
  br label %"_ZSt10__invoke_rIN7rocksdb6StatusERNS0_3$_3EJRKNS0_13ConfigOptionsERKNSt7__cxx1112basic_stringIcSt11char_traitsIcESaIcEEEPKvPSC_EENSt9enable_ifIX16is_invocable_r_vIT_T0_DpT1_EESJ_E4typeEOSK_DpOSL_.exit"

"_ZSt10__invoke_rIN7rocksdb6StatusERNS0_3$_3EJRKNS0_13ConfigOptionsERKNSt7__cxx1112basic_stringIcSt11char_traitsIcESaIcEEEPKvPSC_EENSt9enable_ifIX16is_invocable_r_vIT_T0_DpT1_EESJ_E4typeEOSK_DpOSL_.exit": ; preds = %if.then.i.i.i, %if.then2.i.i.i, %if.else4.i.i.i
  %state_.i.i.i.i.i = getelementptr inbounds i8, ptr %agg.result, i64 8
  store ptr null, ptr %state_.i.i.i.i.i, align 8, !alias.scope !218
  call void @llvm.memset.p0.i64(ptr noundef nonnull align 8 dereferenceable(6) %agg.result, i8 0, i64 6, i1 false), !alias.scope !218
  call void @llvm.lifetime.end.p0(i64 32, ptr nonnull %ref.tmp.i.i.i), !noalias !216
  ret void
}